target datalayout = "e-m:e-p270:32:32-p271:32:32-p272:64:64-i64:64-i128:128-f80:128-n8:16:32:64-S128"
target triple = "x86_64-pc-linux-gnu"

%struct._object = type { %union.anon, ptr }
%union.anon = type { i64 }
%struct._typeobject = type { %struct.PyVarObject, ptr, i64, i64, ptr, i64, ptr, ptr, ptr, ptr, ptr, ptr, ptr, ptr, ptr, ptr, ptr, ptr, ptr, i64, ptr, ptr, ptr, ptr, i64, ptr, ptr, ptr, ptr, ptr, ptr, ptr, ptr, ptr, i64, ptr, ptr, ptr, ptr, ptr, ptr, ptr, ptr, ptr, ptr, ptr, i32, ptr, ptr, i8, i16 }
%struct.PyVarObject = type { %struct._object, i64 }
%struct.anon = type { i32, i32 }
%struct.tagCDataObject = type { %struct._object, ptr, i32, ptr, i64, i64, i64, ptr, %union.value }
%union.value = type { x86_fp80 }

@PyExc_ValueError = external global ptr, align 8
@_Py_NoneStruct = external global %struct._object, align 8
@PyDict_Type = external global %struct._typeobject, align 8
@.str.23 = private unnamed_addr constant [3 x i8] c"%x\00", align 1
@.str.24 = private unnamed_addr constant [33 x i8] c"ctypes object structure too deep\00", align 1
@.str.25 = private unnamed_addr constant [4 x i8] c":%x\00", align 1

; Function Attrs: alwaysinline nounwind uwtable
define internal void @Py_INCREF(ptr noundef %0) #4 {
  %2 = alloca ptr, align 8
  %3 = alloca i32, align 4
  %4 = alloca i32, align 4
  store ptr %0, ptr %2, align 8, !tbaa !7
  call void @llvm.lifetime.start.p0(i64 4, ptr %3) #9
  %5 = load ptr, ptr %2, align 8, !tbaa !7
  %6 = getelementptr inbounds nuw %struct._object, ptr %5, i32 0, i32 0
  %7 = getelementptr inbounds nuw %struct.anon, ptr %6, i32 0, i32 0
  %8 = load i32, ptr %7, align 8, !tbaa !20
  store i32 %8, ptr %3, align 4, !tbaa !16
  %9 = load i32, ptr %3, align 4, !tbaa !16
  %10 = icmp slt i32 %9, 0
  br i1 %10, label %11, label %12

11:                                               ; preds = %1
  store i32 1, ptr %4, align 4
  br label %18

12:                                               ; preds = %1
  %13 = load i32, ptr %3, align 4, !tbaa !16
  %14 = add i32 %13, 1
  %15 = load ptr, ptr %2, align 8, !tbaa !7
  %16 = getelementptr inbounds nuw %struct._object, ptr %15, i32 0, i32 0
  %17 = getelementptr inbounds nuw %struct.anon, ptr %16, i32 0, i32 0
  store i32 %14, ptr %17, align 8, !tbaa !20
  store i32 0, ptr %4, align 4
  br label %18

18:                                               ; preds = %12, %11
  call void @llvm.lifetime.end.p0(i64 4, ptr %3) #9
  %19 = load i32, ptr %4, align 4
  switch i32 %19, label %21 [
    i32 0, label %20
    i32 1, label %20
  ]

20:                                               ; preds = %18, %18
  ret void

21:                                               ; preds = %18
  unreachable
}

; Function Attrs: inlinehint nounwind uwtable
define internal ptr @_Py_TYPE(ptr noundef %0) #2 {
  %2 = alloca ptr, align 8
  store ptr %0, ptr %2, align 8, !tbaa !7
  %3 = load ptr, ptr %2, align 8, !tbaa !7
  %4 = getelementptr inbounds nuw %struct._object, ptr %3, i32 0, i32 1
  %5 = load ptr, ptr %4, align 8, !tbaa !84
  ret ptr %5
}

; Function Attrs: inlinehint nounwind uwtable
define internal ptr @_Py_NewRef(ptr noundef %0) #2 {
  %2 = alloca ptr, align 8
  store ptr %0, ptr %2, align 8, !tbaa !7
  %3 = load ptr, ptr %2, align 8, !tbaa !7
  call void @Py_INCREF(ptr noundef %3)
  %4 = load ptr, ptr %2, align 8, !tbaa !7
  ret ptr %4
}

; Function Attrs: alwaysinline nounwind uwtable
define internal i32 @_Py_IsImmortal(ptr noundef %0) #4 {
  %2 = alloca ptr, align 8
  store ptr %0, ptr %2, align 8, !tbaa !7
  %3 = load ptr, ptr %2, align 8, !tbaa !7
  %4 = getelementptr inbounds nuw %struct._object, ptr %3, i32 0, i32 0
  %5 = getelementptr inbounds nuw %struct.anon, ptr %4, i32 0, i32 0
  %6 = load i32, ptr %5, align 8, !tbaa !20
  %7 = icmp slt i32 %6, 0
  %8 = zext i1 %7 to i32
  ret i32 %8
}

; Function Attrs: nounwind uwtable
define internal ptr @unique_key(ptr noundef %0, i64 noundef %1) #0 {
  %3 = alloca ptr, align 8
  %4 = alloca ptr, align 8
  %5 = alloca i64, align 8
  %6 = alloca [256 x i8], align 16
  %7 = alloca ptr, align 8
  %8 = alloca i64, align 8
  %9 = alloca i32, align 4
  store ptr %0, ptr %4, align 8, !tbaa !39
  store i64 %1, ptr %5, align 8, !tbaa !23
  call void @llvm.lifetime.start.p0(i64 256, ptr %6) #9
  call void @llvm.lifetime.start.p0(i64 8, ptr %7) #9
  %10 = getelementptr inbounds [256 x i8], ptr %6, i64 0, i64 0
  store ptr %10, ptr %7, align 8, !tbaa !25
  call void @llvm.lifetime.start.p0(i64 8, ptr %8) #9
  br label %11

11:                                               ; preds = %2
  br label %12

12:                                               ; preds = %11
  br label %13

13:                                               ; preds = %12
  %14 = load ptr, ptr %7, align 8, !tbaa !25
  %15 = load i64, ptr %5, align 8, !tbaa !23
  %16 = trunc i64 %15 to i32
  %17 = call i32 (ptr, ptr, ...) @sprintf(ptr noundef %14, ptr noundef @.str.23, i32 noundef %16) #9
  %18 = load ptr, ptr %7, align 8, !tbaa !25
  %19 = sext i32 %17 to i64
  %20 = getelementptr i8, ptr %18, i64 %19
  store ptr %20, ptr %7, align 8, !tbaa !25
  br label %21

21:                                               ; preds = %38, %13
  %22 = load ptr, ptr %4, align 8, !tbaa !39
  %23 = getelementptr inbounds nuw %struct.tagCDataObject, ptr %22, i32 0, i32 3
  %24 = load ptr, ptr %23, align 16, !tbaa !48
  %25 = icmp ne ptr %24, null
  br i1 %25, label %26, label %51

26:                                               ; preds = %21
  %27 = load ptr, ptr %7, align 8, !tbaa !25
  %28 = getelementptr inbounds [256 x i8], ptr %6, i64 0, i64 0
  %29 = ptrtoint ptr %27 to i64
  %30 = ptrtoint ptr %28 to i64
  %31 = sub i64 %29, %30
  %32 = sub i64 256, %31
  %33 = sub i64 %32, 1
  store i64 %33, ptr %8, align 8, !tbaa !23
  %34 = load i64, ptr %8, align 8, !tbaa !23
  %35 = icmp ult i64 %34, 16
  br i1 %35, label %36, label %38

36:                                               ; preds = %26
  %37 = load ptr, ptr @PyExc_ValueError, align 8, !tbaa !7
  call void @PyErr_SetString(ptr noundef %37, ptr noundef @.str.24)
  store ptr null, ptr %3, align 8
  store i32 1, ptr %9, align 4
  br label %59

38:                                               ; preds = %26
  %39 = load ptr, ptr %7, align 8, !tbaa !25
  %40 = load ptr, ptr %4, align 8, !tbaa !39
  %41 = getelementptr inbounds nuw %struct.tagCDataObject, ptr %40, i32 0, i32 6
  %42 = load i64, ptr %41, align 8, !tbaa !49
  %43 = trunc i64 %42 to i32
  %44 = call i32 (ptr, ptr, ...) @sprintf(ptr noundef %39, ptr noundef @.str.25, i32 noundef %43) #9
  %45 = load ptr, ptr %7, align 8, !tbaa !25
  %46 = sext i32 %44 to i64
  %47 = getelementptr i8, ptr %45, i64 %46
  store ptr %47, ptr %7, align 8, !tbaa !25
  %48 = load ptr, ptr %4, align 8, !tbaa !39
  %49 = getelementptr inbounds nuw %struct.tagCDataObject, ptr %48, i32 0, i32 3
  %50 = load ptr, ptr %49, align 16, !tbaa !48
  store ptr %50, ptr %4, align 8, !tbaa !39
  br label %21, !llvm.loop !118

51:                                               ; preds = %21
  %52 = getelementptr inbounds [256 x i8], ptr %6, i64 0, i64 0
  %53 = load ptr, ptr %7, align 8, !tbaa !25
  %54 = getelementptr inbounds [256 x i8], ptr %6, i64 0, i64 0
  %55 = ptrtoint ptr %53 to i64
  %56 = ptrtoint ptr %54 to i64
  %57 = sub i64 %55, %56
  %58 = call ptr @PyUnicode_FromStringAndSize(ptr noundef %52, i64 noundef %57)
  store ptr %58, ptr %3, align 8
  store i32 1, ptr %9, align 4
  br label %59

59:                                               ; preds = %51, %36
  call void @llvm.lifetime.end.p0(i64 8, ptr %8) #9
  call void @llvm.lifetime.end.p0(i64 8, ptr %7) #9
  call void @llvm.lifetime.end.p0(i64 256, ptr %6) #9
  %60 = load ptr, ptr %3, align 8
  ret ptr %60
}

; Function Attrs: inlinehint nounwind uwtable
define internal void @Py_XDECREF(ptr noundef %0) #2 {
  %2 = alloca ptr, align 8
  store ptr %0, ptr %2, align 8, !tbaa !7
  %3 = load ptr, ptr %2, align 8, !tbaa !7
  %4 = icmp ne ptr %3, null
  br i1 %4, label %5, label %7

5:                                                ; preds = %1
  %6 = load ptr, ptr %2, align 8, !tbaa !7
  call void @Py_DECREF(ptr noundef %6)
  br label %7

7:                                                ; preds = %5, %1
  ret void
}

; Function Attrs: inlinehint nounwind uwtable
define internal i32 @Py_IS_TYPE(ptr noundef %0, ptr noundef %1) #2 {
  %3 = alloca ptr, align 8
  %4 = alloca ptr, align 8
  store ptr %0, ptr %3, align 8, !tbaa !7
  store ptr %1, ptr %4, align 8, !tbaa !50
  %5 = load ptr, ptr %3, align 8, !tbaa !7
  %6 = call ptr @_Py_TYPE(ptr noundef %5)
  %7 = load ptr, ptr %4, align 8, !tbaa !50
  %8 = icmp eq ptr %6, %7
  %9 = zext i1 %8 to i32
  ret i32 %9
}

; Function Attrs: nounwind uwtable
define internal ptr @PyCData_GetContainer(ptr noundef %0) #0 {
  %2 = alloca ptr, align 8
  %3 = alloca ptr, align 8
  store ptr %0, ptr %3, align 8, !tbaa !39
  br label %4

4:                                                ; preds = %9, %1
  %5 = load ptr, ptr %3, align 8, !tbaa !39
  %6 = getelementptr inbounds nuw %struct.tagCDataObject, ptr %5, i32 0, i32 3
  %7 = load ptr, ptr %6, align 16, !tbaa !48
  %8 = icmp ne ptr %7, null
  br i1 %8, label %9, label %13

9:                                                ; preds = %4
  %10 = load ptr, ptr %3, align 8, !tbaa !39
  %11 = getelementptr inbounds nuw %struct.tagCDataObject, ptr %10, i32 0, i32 3
  %12 = load ptr, ptr %11, align 16, !tbaa !48
  store ptr %12, ptr %3, align 8, !tbaa !39
  br label %4, !llvm.loop !116

13:                                               ; preds = %4
  %14 = load ptr, ptr %3, align 8, !tbaa !39
  %15 = getelementptr inbounds nuw %struct.tagCDataObject, ptr %14, i32 0, i32 7
  %16 = load ptr, ptr %15, align 16, !tbaa !61
  %17 = icmp eq ptr %16, null
  br i1 %17, label %18, label %38

18:                                               ; preds = %13
  %19 = load ptr, ptr %3, align 8, !tbaa !39
  %20 = getelementptr inbounds nuw %struct.tagCDataObject, ptr %19, i32 0, i32 5
  %21 = load i64, ptr %20, align 16, !tbaa !42
  %22 = icmp ne i64 %21, 0
  br i1 %22, label %23, label %33

23:                                               ; preds = %18
  %24 = call ptr @PyDict_New()
  %25 = load ptr, ptr %3, align 8, !tbaa !39
  %26 = getelementptr inbounds nuw %struct.tagCDataObject, ptr %25, i32 0, i32 7
  store ptr %24, ptr %26, align 16, !tbaa !61
  %27 = load ptr, ptr %3, align 8, !tbaa !39
  %28 = getelementptr inbounds nuw %struct.tagCDataObject, ptr %27, i32 0, i32 7
  %29 = load ptr, ptr %28, align 16, !tbaa !61
  %30 = icmp eq ptr %29, null
  br i1 %30, label %31, label %32

31:                                               ; preds = %23
  store ptr null, ptr %2, align 8
  br label %40

32:                                               ; preds = %23
  br label %37

33:                                               ; preds = %18
  %34 = call ptr @_Py_NewRef(ptr noundef @_Py_NoneStruct)
  %35 = load ptr, ptr %3, align 8, !tbaa !39
  %36 = getelementptr inbounds nuw %struct.tagCDataObject, ptr %35, i32 0, i32 7
  store ptr %34, ptr %36, align 16, !tbaa !61
  br label %37

37:                                               ; preds = %33, %32
  br label %38

38:                                               ; preds = %37, %13
  %39 = load ptr, ptr %3, align 8, !tbaa !39
  store ptr %39, ptr %2, align 8
  br label %40

40:                                               ; preds = %38, %31
  %41 = load ptr, ptr %2, align 8
  ret ptr %41
}

; Function Attrs: alwaysinline nounwind uwtable
define internal void @Py_DECREF(ptr noundef %0) #4 {
  %2 = alloca ptr, align 8
  store ptr %0, ptr %2, align 8, !tbaa !7
  %3 = load ptr, ptr %2, align 8, !tbaa !7
  %4 = call i32 @_Py_IsImmortal(ptr noundef %3)
  %5 = icmp ne i32 %4, 0
  br i1 %5, label %6, label %7

6:                                                ; preds = %1
  br label %16

7:                                                ; preds = %1
  %8 = load ptr, ptr %2, align 8, !tbaa !7
  %9 = getelementptr inbounds nuw %struct._object, ptr %8, i32 0, i32 0
  %10 = getelementptr inbounds nuw %struct.anon, ptr %9, i32 0, i32 0
  %11 = load i32, ptr %10, align 8, !tbaa !20
  %12 = add i32 %11, -1
  store i32 %12, ptr %10, align 8, !tbaa !20
  %13 = icmp eq i32 %12, 0
  br i1 %13, label %14, label %16

14:                                               ; preds = %7
  %15 = load ptr, ptr %2, align 8, !tbaa !7
  call void @_Py_Dealloc(ptr noundef %15)
  br label %16

16:                                               ; preds = %6, %14, %7
  ret void
}

; Function Attrs: nounwind uwtable
define internal i32 @KeepRef(ptr noundef %0, i64 noundef %1, ptr noundef %2) #0 {
  %4 = alloca i32, align 4
  %5 = alloca ptr, align 8
  %6 = alloca i64, align 8
  %7 = alloca ptr, align 8
  %8 = alloca i32, align 4
  %9 = alloca ptr, align 8
  %10 = alloca ptr, align 8
  %11 = alloca i32, align 4
  %12 = alloca ptr, align 8
  %13 = alloca ptr, align 8
  store ptr %0, ptr %5, align 8, !tbaa !39
  store i64 %1, ptr %6, align 8, !tbaa !23
  store ptr %2, ptr %7, align 8, !tbaa !7
  call void @llvm.lifetime.start.p0(i64 4, ptr %8) #9
  call void @llvm.lifetime.start.p0(i64 8, ptr %9) #9
  call void @llvm.lifetime.start.p0(i64 8, ptr %10) #9
  %14 = load ptr, ptr %7, align 8, !tbaa !7
  %15 = icmp eq ptr %14, @_Py_NoneStruct
  br i1 %15, label %16, label %17

16:                                               ; preds = %3
  call void @Py_DECREF(ptr noundef @_Py_NoneStruct)
  store i32 0, ptr %4, align 4
  store i32 1, ptr %11, align 4
  br label %64

17:                                               ; preds = %3
  %18 = load ptr, ptr %5, align 8, !tbaa !39
  %19 = call ptr @PyCData_GetContainer(ptr noundef %18)
  store ptr %19, ptr %9, align 8, !tbaa !39
  %20 = load ptr, ptr %9, align 8, !tbaa !39
  %21 = icmp eq ptr %20, null
  br i1 %21, label %22, label %24

22:                                               ; preds = %17
  %23 = load ptr, ptr %7, align 8, !tbaa !7
  call void @Py_DECREF(ptr noundef %23)
  store i32 -1, ptr %4, align 4
  store i32 1, ptr %11, align 4
  br label %64

24:                                               ; preds = %17
  %25 = load ptr, ptr %9, align 8, !tbaa !39
  %26 = getelementptr inbounds nuw %struct.tagCDataObject, ptr %25, i32 0, i32 7
  %27 = load ptr, ptr %26, align 16, !tbaa !61
  %28 = icmp eq ptr %27, null
  br i1 %28, label %35, label %29

29:                                               ; preds = %24
  %30 = load ptr, ptr %9, align 8, !tbaa !39
  %31 = getelementptr inbounds nuw %struct.tagCDataObject, ptr %30, i32 0, i32 7
  %32 = load ptr, ptr %31, align 16, !tbaa !61
  %33 = call i32 @Py_IS_TYPE(ptr noundef %32, ptr noundef @PyDict_Type)
  %34 = icmp ne i32 %33, 0
  br i1 %34, label %46, label %35

35:                                               ; preds = %29, %24
  br label %36

36:                                               ; preds = %35
  call void @llvm.lifetime.start.p0(i64 8, ptr %12) #9
  %37 = load ptr, ptr %9, align 8, !tbaa !39
  %38 = getelementptr inbounds nuw %struct.tagCDataObject, ptr %37, i32 0, i32 7
  store ptr %38, ptr %12, align 8, !tbaa !21
  call void @llvm.lifetime.start.p0(i64 8, ptr %13) #9
  %39 = load ptr, ptr %12, align 8, !tbaa !21
  %40 = load ptr, ptr %39, align 8, !tbaa !7
  store ptr %40, ptr %13, align 8, !tbaa !7
  %41 = load ptr, ptr %7, align 8, !tbaa !7
  %42 = load ptr, ptr %12, align 8, !tbaa !21
  store ptr %41, ptr %42, align 8, !tbaa !7
  %43 = load ptr, ptr %13, align 8, !tbaa !7
  call void @Py_XDECREF(ptr noundef %43)
  call void @llvm.lifetime.end.p0(i64 8, ptr %13) #9
  call void @llvm.lifetime.end.p0(i64 8, ptr %12) #9
  br label %44

44:                                               ; preds = %36
  br label %45

45:                                               ; preds = %44
  store i32 0, ptr %4, align 4
  store i32 1, ptr %11, align 4
  br label %64

46:                                               ; preds = %29
  %47 = load ptr, ptr %5, align 8, !tbaa !39
  %48 = load i64, ptr %6, align 8, !tbaa !23
  %49 = call ptr @unique_key(ptr noundef %47, i64 noundef %48)
  store ptr %49, ptr %10, align 8, !tbaa !7
  %50 = load ptr, ptr %10, align 8, !tbaa !7
  %51 = icmp eq ptr %50, null
  br i1 %51, label %52, label %54

52:                                               ; preds = %46
  %53 = load ptr, ptr %7, align 8, !tbaa !7
  call void @Py_DECREF(ptr noundef %53)
  store i32 -1, ptr %4, align 4
  store i32 1, ptr %11, align 4
  br label %64

54:                                               ; preds = %46
  %55 = load ptr, ptr %9, align 8, !tbaa !39
  %56 = getelementptr inbounds nuw %struct.tagCDataObject, ptr %55, i32 0, i32 7
  %57 = load ptr, ptr %56, align 16, !tbaa !61
  %58 = load ptr, ptr %10, align 8, !tbaa !7
  %59 = load ptr, ptr %7, align 8, !tbaa !7
  %60 = call i32 @PyDict_SetItem(ptr noundef %57, ptr noundef %58, ptr noundef %59)
  store i32 %60, ptr %8, align 4, !tbaa !16
  %61 = load ptr, ptr %10, align 8, !tbaa !7
  call void @Py_DECREF(ptr noundef %61)
  %62 = load ptr, ptr %7, align 8, !tbaa !7
  call void @Py_DECREF(ptr noundef %62)
  %63 = load i32, ptr %8, align 4, !tbaa !16
  store i32 %63, ptr %4, align 4
  store i32 1, ptr %11, align 4
  br label %64

64:                                               ; preds = %54, %52, %45, %22, %16
  call void @llvm.lifetime.end.p0(i64 8, ptr %10) #9
  call void @llvm.lifetime.end.p0(i64 8, ptr %9) #9
  call void @llvm.lifetime.end.p0(i64 4, ptr %8) #9
  %65 = load i32, ptr %4, align 4
  ret i32 %65
}