; Function Attrs: nounwind uwtable
define internal fastcc i32 @KeepRef(ptr noundef captures(none) %0, i64 noundef %1, ptr noundef %2) unnamed_addr #0 {
  %4 = alloca [256 x i8], align 16
  %5 = icmp eq ptr %2, @_Py_NoneStruct
  br i1 %5, label %6, label %.preheader

6:                                                ; preds = %3
  %7 = load i32, ptr @_Py_NoneStruct, align 8, !tbaa !23
  %.not.i31 = icmp sgt i32 %7, -1
  br i1 %.not.i31, label %8, label %Py_DECREF.exit32

8:                                                ; preds = %6
  %9 = add nsw i32 %7, -1
  store i32 %9, ptr @_Py_NoneStruct, align 8, !tbaa !23
  %10 = icmp eq i32 %9, 0
  br i1 %10, label %11, label %Py_DECREF.exit32

11:                                               ; preds = %8
  tail call void @_Py_Dealloc(ptr noundef nonnull @_Py_NoneStruct) #17
  br label %Py_DECREF.exit32

.preheader:                                       ; preds = %3, %.preheader
  %.0.i = phi ptr [ %13, %.preheader ], [ %0, %3 ]
  %12 = getelementptr inbounds nuw i8, ptr %.0.i, i64 32
  %13 = load ptr, ptr %12, align 16, !tbaa !44
  %.not.i37 = icmp eq ptr %13, null
  br i1 %.not.i37, label %14, label %.preheader, !llvm.loop !55

14:                                               ; preds = %.preheader
  %15 = getelementptr inbounds nuw i8, ptr %.0.i, i64 64
  %16 = load ptr, ptr %15, align 16, !tbaa !57
  %17 = icmp eq ptr %16, null
  br i1 %17, label %18, label %PyCData_GetContainer.exit

18:                                               ; preds = %14
  %19 = getelementptr inbounds nuw i8, ptr %.0.i, i64 48
  %20 = load i64, ptr %19, align 16, !tbaa !37
  %.not11.i = icmp eq i64 %20, 0
  br i1 %.not11.i, label %24, label %21

21:                                               ; preds = %18
  %22 = tail call ptr @PyDict_New() #17
  store ptr %22, ptr %15, align 16, !tbaa !57
  %23 = icmp eq ptr %22, null
  br i1 %23, label %29, label %PyCData_GetContainer.exit

24:                                               ; preds = %18
  %25 = load i32, ptr @_Py_NoneStruct, align 8, !tbaa !23
  %26 = icmp slt i32 %25, 0
  br i1 %26, label %_Py_NewRef.exit.i, label %27

27:                                               ; preds = %24
  %28 = add nuw i32 %25, 1
  store i32 %28, ptr @_Py_NoneStruct, align 8, !tbaa !23
  br label %_Py_NewRef.exit.i

_Py_NewRef.exit.i:                                ; preds = %27, %24
  store ptr @_Py_NoneStruct, ptr %15, align 16, !tbaa !57
  br label %PyCData_GetContainer.exit

29:                                               ; preds = %21
  %30 = load i32, ptr %2, align 8, !tbaa !23
  %.not.i29 = icmp sgt i32 %30, -1
  br i1 %.not.i29, label %31, label %Py_DECREF.exit32

31:                                               ; preds = %29
  %32 = add nsw i32 %30, -1
  store i32 %32, ptr %2, align 8, !tbaa !23
  %33 = icmp eq i32 %32, 0
  br i1 %33, label %34, label %Py_DECREF.exit32

34:                                               ; preds = %31
  tail call void @_Py_Dealloc(ptr noundef nonnull %2) #17
  br label %Py_DECREF.exit32

PyCData_GetContainer.exit:                        ; preds = %14, %21, %_Py_NewRef.exit.i
  %35 = phi ptr [ @_Py_NoneStruct, %_Py_NewRef.exit.i ], [ %22, %21 ], [ %16, %14 ]
  %36 = getelementptr i8, ptr %35, i64 8
  %.val = load ptr, ptr %36, align 8, !tbaa !10
  %.not = icmp eq ptr %.val, @PyDict_Type
  br i1 %.not, label %43, label %37

37:                                               ; preds = %PyCData_GetContainer.exit
  store ptr %2, ptr %15, align 8, !tbaa !27
  %38 = load i32, ptr %35, align 8, !tbaa !23
  %.not.i.i = icmp sgt i32 %38, -1
  br i1 %.not.i.i, label %39, label %Py_DECREF.exit32

39:                                               ; preds = %37
  %40 = add nsw i32 %38, -1
  store i32 %40, ptr %35, align 8, !tbaa !23
  %41 = icmp eq i32 %40, 0
  br i1 %41, label %42, label %Py_DECREF.exit32

42:                                               ; preds = %39
  tail call void @_Py_Dealloc(ptr noundef nonnull %35) #17
  br label %Py_DECREF.exit32

43:                                               ; preds = %PyCData_GetContainer.exit
  call void @llvm.lifetime.start.p0(i64 256, ptr nonnull %4) #17
  %44 = trunc i64 %1 to i32
  %45 = call i32 (ptr, ptr, ...) @sprintf(ptr noundef nonnull dereferenceable(1) %4, ptr noundef nonnull dereferenceable(1) @.str.23, i32 noundef %44) #17
  %46 = sext i32 %45 to i64
  %47 = getelementptr i8, ptr %4, i64 %46
  %48 = getelementptr inbounds nuw i8, ptr %0, i64 32
  %49 = load ptr, ptr %48, align 16, !tbaa !44
  %.not15.i = icmp eq ptr %49, null
  %.pre.i = ptrtoint ptr %4 to i64
  br i1 %.not15.i, label %unique_key.exit, label %.lr.ph.i

.lr.ph.i:                                         ; preds = %43
  %.neg.i = add i64 %.pre.i, 255
  br label %50

50:                                               ; preds = %56, %.lr.ph.i
  %51 = phi ptr [ %48, %.lr.ph.i ], [ %64, %56 ]
  %.01117.i = phi ptr [ %47, %.lr.ph.i ], [ %62, %56 ]
  %.01216.i = phi ptr [ %0, %.lr.ph.i ], [ %63, %56 ]
  %52 = ptrtoint ptr %.01117.i to i64
  %53 = sub i64 %.neg.i, %52
  %54 = icmp ult i64 %53, 16
  br i1 %54, label %unique_key.exit.thread, label %56

unique_key.exit.thread:                           ; preds = %50
  %55 = load ptr, ptr @PyExc_ValueError, align 8, !tbaa !27
  call void @PyErr_SetString(ptr noundef %55, ptr noundef nonnull @.str.24) #17
  call void @llvm.lifetime.end.p0(i64 256, ptr nonnull %4) #17
  br label %70

56:                                               ; preds = %50
  %57 = getelementptr inbounds nuw i8, ptr %.01216.i, i64 56
  %58 = load i64, ptr %57, align 8, !tbaa !45
  %59 = trunc i64 %58 to i32
  %60 = call i32 (ptr, ptr, ...) @sprintf(ptr noundef nonnull dereferenceable(1) %.01117.i, ptr noundef nonnull dereferenceable(1) @.str.25, i32 noundef %59) #17
  %61 = sext i32 %60 to i64
  %62 = getelementptr i8, ptr %.01117.i, i64 %61
  %63 = load ptr, ptr %51, align 16, !tbaa !44
  %64 = getelementptr inbounds nuw i8, ptr %63, i64 32
  %65 = load ptr, ptr %64, align 16, !tbaa !44
  %.not.i39 = icmp eq ptr %65, null
  br i1 %.not.i39, label %unique_key.exit, label %50, !llvm.loop !60

unique_key.exit:                                  ; preds = %56, %43
  %.011.lcssa.i = phi ptr [ %47, %43 ], [ %62, %56 ]
  %66 = ptrtoint ptr %.011.lcssa.i to i64
  %67 = sub i64 %66, %.pre.i
  %68 = call ptr @PyUnicode_FromStringAndSize(ptr noundef nonnull %4, i64 noundef %67) #17
  call void @llvm.lifetime.end.p0(i64 256, ptr nonnull %4) #17
  %69 = icmp eq ptr %68, null
  br i1 %69, label %70, label %76

70:                                               ; preds = %unique_key.exit.thread, %unique_key.exit
  %71 = load i32, ptr %2, align 8, !tbaa !23
  %.not.i27 = icmp sgt i32 %71, -1
  br i1 %.not.i27, label %72, label %Py_DECREF.exit32

72:                                               ; preds = %70
  %73 = add nsw i32 %71, -1
  store i32 %73, ptr %2, align 8, !tbaa !23
  %74 = icmp eq i32 %73, 0
  br i1 %74, label %75, label %Py_DECREF.exit32

75:                                               ; preds = %72
  call void @_Py_Dealloc(ptr noundef nonnull %2) #17
  br label %Py_DECREF.exit32

76:                                               ; preds = %unique_key.exit
  %77 = load ptr, ptr %15, align 16, !tbaa !57
  %78 = call i32 @PyDict_SetItem(ptr noundef %77, ptr noundef nonnull %68, ptr noundef %2) #17
  %79 = load i32, ptr %68, align 8, !tbaa !23
  %.not.i25 = icmp sgt i32 %79, -1
  br i1 %.not.i25, label %80, label %Py_DECREF.exit26

80:                                               ; preds = %76
  %81 = add nsw i32 %79, -1
  store i32 %81, ptr %68, align 8, !tbaa !23
  %82 = icmp eq i32 %81, 0
  br i1 %82, label %83, label %Py_DECREF.exit26

83:                                               ; preds = %80
  call void @_Py_Dealloc(ptr noundef nonnull %68) #17
  br label %Py_DECREF.exit26

Py_DECREF.exit26:                                 ; preds = %76, %80, %83
  %84 = load i32, ptr %2, align 8, !tbaa !23
  %.not.i = icmp sgt i32 %84, -1
  br i1 %.not.i, label %85, label %Py_DECREF.exit32

85:                                               ; preds = %Py_DECREF.exit26
  %86 = add nsw i32 %84, -1
  store i32 %86, ptr %2, align 8, !tbaa !23
  %87 = icmp eq i32 %86, 0
  br i1 %87, label %88, label %Py_DECREF.exit32

88:                                               ; preds = %85
  call void @_Py_Dealloc(ptr noundef nonnull %2) #17
  br label %Py_DECREF.exit32

Py_DECREF.exit32:                                 ; preds = %88, %85, %Py_DECREF.exit26, %75, %72, %70, %42, %39, %37, %34, %31, %29, %11, %8, %6
  %.0 = phi i32 [ 0, %6 ], [ 0, %8 ], [ 0, %11 ], [ -1, %29 ], [ -1, %31 ], [ -1, %34 ], [ 0, %37 ], [ 0, %39 ], [ 0, %42 ], [ -1, %70 ], [ -1, %72 ], [ -1, %75 ], [ %78, %Py_DECREF.exit26 ], [ %78, %85 ], [ %78, %88 ]
  ret i32 %.0
}